; Function Attrs: nounwind uwtable
define range(i32 0, 2) i32 @H5F_term_package() local_unnamed_addr #0 {
  %1 = tail call i64 @H5I_nmembers(i32 noundef 1) #22
  %2 = icmp sgt i64 %1, 0
  br i1 %2, label %3, label %5

3:                                                ; preds = %0
  %4 = tail call i32 @H5I_clear_type(i32 noundef 1, i1 noundef zeroext false, i1 noundef zeroext false) #22
  br label %9

5:                                                ; preds = %0
  tail call void @H5F_sfile_assert_num(i32 noundef 0) #22
  %6 = tail call i32 @H5I_dec_type_ref(i32 noundef 1) #22
  %7 = icmp sgt i32 %6, 0
  %8 = zext i1 %7 to i32
  br label %9

9:                                                ; preds = %5, %3
  %.0 = phi i32 [ 1, %3 ], [ %8, %5 ]
  ret i32 %.0
}